target datalayout = "e-m:e-p270:32:32-p271:32:32-p272:64:64-i64:64-i128:128-f80:128-n8:16:32:64-S128"
target triple = "x86_64-unknown-linux-gnu"

%class.substitution = type <{ ptr, %class.var_offset_map, %class.svector.0, %class.ref_vector, %class.svector.3, %class.svector.5, %class.expr_offset_map, %class.ref_vector, %class.expr_offset_map.8, i32, [4 x i8] }>
%class.var_offset_map = type <{ %class.svector, i32, i32, i32, [4 x i8] }>
%class.svector = type { %class.vector }
%class.vector = type { ptr }
%class.svector.0 = type { %class.vector.1 }
%class.vector.1 = type { ptr }
%class.svector.3 = type { %class.vector.4 }
%class.vector.4 = type { ptr }
%class.svector.5 = type { %class.vector.6 }
%class.vector.6 = type { ptr }
%class.expr_offset_map = type <{ %class.vector.7, i32, [4 x i8] }>
%class.vector.7 = type { ptr }
%class.ref_vector = type { %class.ref_vector_core }
%class.ref_vector_core = type { %class.ref_manager_wrapper, %class.ptr_vector }
%class.ref_manager_wrapper = type { ptr }
%class.ptr_vector = type { %class.vector.2 }
%class.vector.2 = type { ptr }
%class.expr_offset_map.8 = type <{ %class.vector.9, i32, [4 x i8] }>
%class.vector.9 = type { ptr }
%"struct.var_offset_map<expr_offset>::data" = type { %class.expr_offset, i32, [4 x i8] }
%class.expr_offset = type <{ ptr, i32, [4 x i8] }>
%struct.mk_pp = type { %struct.mk_ismt2_pp }
%struct.mk_ismt2_pp = type { ptr, ptr, %class.params_ref, ptr, i32, i32, ptr }
%class.params_ref = type { ptr }

@.str.4 = private unnamed_addr constant [5 x i8] c"VAR \00", align 1
@.str.5 = private unnamed_addr constant [2 x i8] c":\00", align 1
@.str.7 = private unnamed_addr constant [2 x i8] c"\0A\00", align 1
@.str.8 = private unnamed_addr constant [6 x i8] c" --> \00", align 1

; Function Attrs: mustprogress nounwind uwtable
define linkonce_odr hidden noundef nonnull align 8 dereferenceable(20) ptr @_ZNK6vectorIN14var_offset_mapI11expr_offsetE4dataELb0EjEixEj(ptr noundef nonnull align 8 dereferenceable(8) %this, i32 noundef %idx) #5 comdat align 2 {
entry:
  %this.addr = alloca ptr, align 8
  %idx.addr = alloca i32, align 4
  store ptr %this, ptr %this.addr, align 8
  store i32 %idx, ptr %idx.addr, align 4
  %this1 = load ptr, ptr %this.addr, align 8
  %m_data = getelementptr inbounds %class.vector, ptr %this1, i32 0, i32 0
  %0 = load ptr, ptr %m_data, align 8
  %1 = load i32, ptr %idx.addr, align 4
  %idxprom = zext i32 %1 to i64
  %arrayidx = getelementptr inbounds %"struct.var_offset_map<expr_offset>::data", ptr %0, i64 %idxprom
  ret ptr %arrayidx
}

; Function Attrs: mustprogress nounwind uwtable
define linkonce_odr hidden void @_ZN11mk_ismt2_ppD2Ev(ptr noundef nonnull align 8 dereferenceable(48) %this) unnamed_addr #5 comdat align 2 {
entry:
  %this.addr = alloca ptr, align 8
  store ptr %this, ptr %this.addr, align 8
  %this1 = load ptr, ptr %this.addr, align 8
  %m_empty = getelementptr inbounds %struct.mk_ismt2_pp, ptr %this1, i32 0, i32 2
  call void @_ZN10params_refD1Ev(ptr noundef nonnull align 8 dereferenceable(8) %m_empty) #3
  ret void
}

; Function Attrs: mustprogress uwtable
define linkonce_odr hidden noundef zeroext i1 @_ZNK14var_offset_mapI11expr_offsetE4findEjjRS0_(ptr noundef nonnull align 8 dereferenceable(20) %this, i32 noundef %v_idx, i32 noundef %offset, ptr noundef nonnull align 8 dereferenceable(12) %r) #4 comdat align 2 {
entry:
  %retval = alloca i1, align 1
  %this.addr = alloca ptr, align 8
  %v_idx.addr = alloca i32, align 4
  %offset.addr = alloca i32, align 4
  %r.addr = alloca ptr, align 8
  %idx = alloca i32, align 4
  %d = alloca ptr, align 8
  store ptr %this, ptr %this.addr, align 8
  store i32 %v_idx, ptr %v_idx.addr, align 4
  store i32 %offset, ptr %offset.addr, align 4
  store ptr %r, ptr %r.addr, align 8
  %this1 = load ptr, ptr %this.addr, align 8
  %0 = load i32, ptr %v_idx.addr, align 4
  %1 = load i32, ptr %offset.addr, align 4
  %m_num_vars = getelementptr inbounds %class.var_offset_map, ptr %this1, i32 0, i32 2
  %2 = load i32, ptr %m_num_vars, align 4
  %mul = mul i32 %1, %2
  %add = add i32 %0, %mul
  store i32 %add, ptr %idx, align 4
  %m_map = getelementptr inbounds %class.var_offset_map, ptr %this1, i32 0, i32 0
  %3 = load i32, ptr %idx, align 4
  %call = call noundef nonnull align 8 dereferenceable(20) ptr @_ZNK6vectorIN14var_offset_mapI11expr_offsetE4dataELb0EjEixEj(ptr noundef nonnull align 8 dereferenceable(8) %m_map, i32 noundef %3)
  store ptr %call, ptr %d, align 8
  %4 = load ptr, ptr %d, align 8
  %m_timestamp = getelementptr inbounds %"struct.var_offset_map<expr_offset>::data", ptr %4, i32 0, i32 1
  %5 = load i32, ptr %m_timestamp, align 8
  %m_timestamp2 = getelementptr inbounds %class.var_offset_map, ptr %this1, i32 0, i32 3
  %6 = load i32, ptr %m_timestamp2, align 8
  %cmp = icmp eq i32 %5, %6
  br i1 %cmp, label %if.then, label %if.end

if.then:                                          ; preds = %entry
  %7 = load ptr, ptr %d, align 8
  %m_data = getelementptr inbounds %"struct.var_offset_map<expr_offset>::data", ptr %7, i32 0, i32 0
  %8 = load ptr, ptr %r.addr, align 8
  call void @llvm.memcpy.p0.p0.i64(ptr align 8 %8, ptr align 8 %m_data, i64 12, i1 false)
  store i1 true, ptr %retval, align 1
  br label %return

if.end:                                           ; preds = %entry
  store i1 false, ptr %retval, align 1
  br label %return

return:                                           ; preds = %if.end, %if.then
  %9 = load i1, ptr %retval, align 1
  ret i1 %9
}

; Function Attrs: mustprogress nounwind uwtable
define linkonce_odr hidden void @_ZN5mk_ppD2Ev(ptr noundef nonnull align 8 dereferenceable(48) %this) unnamed_addr #5 comdat align 2 {
entry:
  %this.addr = alloca ptr, align 8
  store ptr %this, ptr %this.addr, align 8
  %this1 = load ptr, ptr %this.addr, align 8
  call void @_ZN11mk_ismt2_ppD2Ev(ptr noundef nonnull align 8 dereferenceable(48) %this1) #3
  ret void
}

; Function Attrs: mustprogress uwtable
define linkonce_odr hidden void @_ZN5mk_ppC2EP3astR11ast_managerjjPKc(ptr noundef nonnull align 8 dereferenceable(48) %this, ptr noundef %t, ptr noundef nonnull align 8 dereferenceable(976) %m, i32 noundef %indent, i32 noundef %num_vars, ptr noundef %var_prefix) unnamed_addr #4 comdat align 2 {
entry:
  %this.addr = alloca ptr, align 8
  %t.addr = alloca ptr, align 8
  %m.addr = alloca ptr, align 8
  %indent.addr = alloca i32, align 4
  %num_vars.addr = alloca i32, align 4
  %var_prefix.addr = alloca ptr, align 8
  store ptr %this, ptr %this.addr, align 8
  store ptr %t, ptr %t.addr, align 8
  store ptr %m, ptr %m.addr, align 8
  store i32 %indent, ptr %indent.addr, align 4
  store i32 %num_vars, ptr %num_vars.addr, align 4
  store ptr %var_prefix, ptr %var_prefix.addr, align 8
  %this1 = load ptr, ptr %this.addr, align 8
  %0 = load ptr, ptr %t.addr, align 8
  %1 = load ptr, ptr %m.addr, align 8
  %2 = load i32, ptr %indent.addr, align 4
  %3 = load i32, ptr %num_vars.addr, align 4
  %4 = load ptr, ptr %var_prefix.addr, align 8
  call void @_ZN11mk_ismt2_ppC2EP3astR11ast_managerjjPKc(ptr noundef nonnull align 8 dereferenceable(48) %this1, ptr noundef %0, ptr noundef nonnull align 8 dereferenceable(976) %1, i32 noundef %2, i32 noundef %3, ptr noundef %4)
  ret void
}

; Function Attrs: mustprogress nounwind uwtable
define linkonce_odr hidden noundef ptr @_ZNK11expr_offset8get_exprEv(ptr noundef nonnull align 8 dereferenceable(12) %this) #5 comdat align 2 {
entry:
  %this.addr = alloca ptr, align 8
  store ptr %this, ptr %this.addr, align 8
  %this1 = load ptr, ptr %this.addr, align 8
  %m_expr = getelementptr inbounds %class.expr_offset, ptr %this1, i32 0, i32 0
  %0 = load ptr, ptr %m_expr, align 8
  ret ptr %0
}

; Function Attrs: mustprogress nounwind uwtable
define linkonce_odr hidden noundef i32 @_ZNK11expr_offset10get_offsetEv(ptr noundef nonnull align 8 dereferenceable(12) %this) #5 comdat align 2 {
entry:
  %this.addr = alloca ptr, align 8
  store ptr %this, ptr %this.addr, align 8
  %this1 = load ptr, ptr %this.addr, align 8
  %m_offset = getelementptr inbounds %class.expr_offset, ptr %this1, i32 0, i32 1
  %0 = load i32, ptr %m_offset, align 8
  ret i32 %0
}

; Function Attrs: mustprogress uwtable
define linkonce_odr hidden noundef zeroext i1 @_ZNK12substitution4findEjjR11expr_offset(ptr noundef nonnull align 8 dereferenceable(124) %this, i32 noundef %v_idx, i32 noundef %offset, ptr noundef nonnull align 8 dereferenceable(12) %r) #4 comdat align 2 {
entry:
  %this.addr = alloca ptr, align 8
  %v_idx.addr = alloca i32, align 4
  %offset.addr = alloca i32, align 4
  %r.addr = alloca ptr, align 8
  store ptr %this, ptr %this.addr, align 8
  store i32 %v_idx, ptr %v_idx.addr, align 4
  store i32 %offset, ptr %offset.addr, align 4
  store ptr %r, ptr %r.addr, align 8
  %this1 = load ptr, ptr %this.addr, align 8
  %m_subst = getelementptr inbounds %class.substitution, ptr %this1, i32 0, i32 1
  %0 = load i32, ptr %v_idx.addr, align 4
  %1 = load i32, ptr %offset.addr, align 4
  %2 = load ptr, ptr %r.addr, align 8
  %call = call noundef zeroext i1 @_ZNK14var_offset_mapI11expr_offsetE4findEjjRS0_(ptr noundef nonnull align 8 dereferenceable(20) %m_subst, i32 noundef %0, i32 noundef %1, ptr noundef nonnull align 8 dereferenceable(12) %2)
  ret i1 %call
}

; Function Attrs: mustprogress nounwind uwtable
define linkonce_odr hidden void @_ZN11expr_offsetC2Ev(ptr noundef nonnull align 8 dereferenceable(12) %this) unnamed_addr #5 comdat align 2 {
entry:
  %this.addr = alloca ptr, align 8
  store ptr %this, ptr %this.addr, align 8
  %this1 = load ptr, ptr %this.addr, align 8
  %m_expr = getelementptr inbounds %class.expr_offset, ptr %this1, i32 0, i32 0
  store ptr null, ptr %m_expr, align 8
  %m_offset = getelementptr inbounds %class.expr_offset, ptr %this1, i32 0, i32 1
  store i32 0, ptr %m_offset, align 8
  ret void
}

; Function Attrs: mustprogress nounwind uwtable
define linkonce_odr hidden noundef i32 @_ZNK14var_offset_mapI11expr_offsetE13vars_capacityEv(ptr noundef nonnull align 8 dereferenceable(20) %this) #5 comdat align 2 {
entry:
  %this.addr = alloca ptr, align 8
  store ptr %this, ptr %this.addr, align 8
  %this1 = load ptr, ptr %this.addr, align 8
  %m_num_vars = getelementptr inbounds %class.var_offset_map, ptr %this1, i32 0, i32 2
  %0 = load i32, ptr %m_num_vars, align 4
  ret i32 %0
}

; Function Attrs: mustprogress nounwind uwtable
define linkonce_odr hidden noundef i32 @_ZNK14var_offset_mapI11expr_offsetE16offsets_capacityEv(ptr noundef nonnull align 8 dereferenceable(20) %this) #5 comdat align 2 {
entry:
  %this.addr = alloca ptr, align 8
  store ptr %this, ptr %this.addr, align 8
  %this1 = load ptr, ptr %this.addr, align 8
  %m_num_offsets = getelementptr inbounds %class.var_offset_map, ptr %this1, i32 0, i32 1
  %0 = load i32, ptr %m_num_offsets, align 8
  ret i32 %0
}

; Function Attrs: mustprogress uwtable
define hidden void @_ZN12substitution7displayERSo(ptr noundef nonnull align 8 dereferenceable(124) %this, ptr noundef nonnull align 8 dereferenceable(8) %out) #4 align 2 personality ptr @__gxx_personality_v0 {
entry:
  %this.addr = alloca ptr, align 8
  %out.addr = alloca ptr, align 8
  %i = alloca i32, align 4
  %j = alloca i32, align 4
  %r = alloca %class.expr_offset, align 8
  %ref.tmp = alloca %struct.mk_pp, align 8
  %exn.slot = alloca ptr, align 8
  %ehselector.slot = alloca i32, align 4
  store ptr %this, ptr %this.addr, align 8
  store ptr %out, ptr %out.addr, align 8
  %this1 = load ptr, ptr %this.addr, align 8
  store i32 0, ptr %i, align 4
  br label %for.cond

for.cond:                                         ; preds = %for.inc20, %entry
  %0 = load i32, ptr %i, align 4
  %m_subst = getelementptr inbounds %class.substitution, ptr %this1, i32 0, i32 1
  %call = call noundef i32 @_ZNK14var_offset_mapI11expr_offsetE16offsets_capacityEv(ptr noundef nonnull align 8 dereferenceable(20) %m_subst)
  %cmp = icmp ult i32 %0, %call
  br i1 %cmp, label %for.body, label %for.end22

for.body:                                         ; preds = %for.cond
  store i32 0, ptr %j, align 4
  br label %for.cond2

for.cond2:                                        ; preds = %for.inc, %for.body
  %1 = load i32, ptr %j, align 4
  %m_subst3 = getelementptr inbounds %class.substitution, ptr %this1, i32 0, i32 1
  %call4 = call noundef i32 @_ZNK14var_offset_mapI11expr_offsetE13vars_capacityEv(ptr noundef nonnull align 8 dereferenceable(20) %m_subst3)
  %cmp5 = icmp ult i32 %1, %call4
  br i1 %cmp5, label %for.body6, label %for.end

for.body6:                                        ; preds = %for.cond2
  call void @_ZN11expr_offsetC2Ev(ptr noundef nonnull align 8 dereferenceable(12) %r)
  %2 = load i32, ptr %j, align 4
  %3 = load i32, ptr %i, align 4
  %call7 = call noundef zeroext i1 @_ZNK12substitution4findEjjR11expr_offset(ptr noundef nonnull align 8 dereferenceable(124) %this1, i32 noundef %2, i32 noundef %3, ptr noundef nonnull align 8 dereferenceable(12) %r)
  br i1 %call7, label %if.then, label %if.end

if.then:                                          ; preds = %for.body6
  %4 = load ptr, ptr %out.addr, align 8
  %call8 = call noundef nonnull align 8 dereferenceable(8) ptr @_ZStlsISt11char_traitsIcEERSt13basic_ostreamIcT_ES5_PKc(ptr noundef nonnull align 8 dereferenceable(8) %4, ptr noundef @.str.4)
  %5 = load i32, ptr %j, align 4
  %call9 = call noundef nonnull align 8 dereferenceable(8) ptr @_ZNSolsEj(ptr noundef nonnull align 8 dereferenceable(8) %call8, i32 noundef %5)
  %call10 = call noundef nonnull align 8 dereferenceable(8) ptr @_ZStlsISt11char_traitsIcEERSt13basic_ostreamIcT_ES5_PKc(ptr noundef nonnull align 8 dereferenceable(8) %call9, ptr noundef @.str.5)
  %6 = load i32, ptr %i, align 4
  %call11 = call noundef nonnull align 8 dereferenceable(8) ptr @_ZNSolsEj(ptr noundef nonnull align 8 dereferenceable(8) %call10, i32 noundef %6)
  %call12 = call noundef nonnull align 8 dereferenceable(8) ptr @_ZStlsISt11char_traitsIcEERSt13basic_ostreamIcT_ES5_PKc(ptr noundef nonnull align 8 dereferenceable(8) %call11, ptr noundef @.str.8)
  %call13 = call noundef i32 @_ZNK11expr_offset10get_offsetEv(ptr noundef nonnull align 8 dereferenceable(12) %r)
  %call14 = call noundef nonnull align 8 dereferenceable(8) ptr @_ZNSolsEj(ptr noundef nonnull align 8 dereferenceable(8) %call12, i32 noundef %call13)
  %call15 = call noundef nonnull align 8 dereferenceable(8) ptr @_ZStlsISt11char_traitsIcEERSt13basic_ostreamIcT_ES5_PKc(ptr noundef nonnull align 8 dereferenceable(8) %call14, ptr noundef @.str.7)
  %call16 = call noundef ptr @_ZNK11expr_offset8get_exprEv(ptr noundef nonnull align 8 dereferenceable(12) %r)
  %m_manager = getelementptr inbounds %class.substitution, ptr %this1, i32 0, i32 0
  %7 = load ptr, ptr %m_manager, align 8
  call void @_ZN5mk_ppC2EP3astR11ast_managerjjPKc(ptr noundef nonnull align 8 dereferenceable(48) %ref.tmp, ptr noundef %call16, ptr noundef nonnull align 8 dereferenceable(976) %7, i32 noundef 0, i32 noundef 0, ptr noundef null)
  %call17 = invoke noundef nonnull align 8 dereferenceable(8) ptr @_ZlsRSoRK11mk_ismt2_pp(ptr noundef nonnull align 8 dereferenceable(8) %call15, ptr noundef nonnull align 8 dereferenceable(48) %ref.tmp)
          to label %invoke.cont unwind label %lpad

invoke.cont:                                      ; preds = %if.then
  %call19 = invoke noundef nonnull align 8 dereferenceable(8) ptr @_ZStlsISt11char_traitsIcEERSt13basic_ostreamIcT_ES5_PKc(ptr noundef nonnull align 8 dereferenceable(8) %call17, ptr noundef @.str.7)
          to label %invoke.cont18 unwind label %lpad

invoke.cont18:                                    ; preds = %invoke.cont
  call void @_ZN5mk_ppD2Ev(ptr noundef nonnull align 8 dereferenceable(48) %ref.tmp) #3
  br label %if.end

lpad:                                             ; preds = %invoke.cont, %if.then
  %8 = landingpad { ptr, i32 }
          cleanup
  %9 = extractvalue { ptr, i32 } %8, 0
  store ptr %9, ptr %exn.slot, align 8
  %10 = extractvalue { ptr, i32 } %8, 1
  store i32 %10, ptr %ehselector.slot, align 4
  call void @_ZN5mk_ppD2Ev(ptr noundef nonnull align 8 dereferenceable(48) %ref.tmp) #3
  br label %eh.resume

if.end:                                           ; preds = %invoke.cont18, %for.body6
  br label %for.inc

for.inc:                                          ; preds = %if.end
  %11 = load i32, ptr %j, align 4
  %inc = add i32 %11, 1
  store i32 %inc, ptr %j, align 4
  br label %for.cond2, !llvm.loop !23

for.end:                                          ; preds = %for.cond2
  br label %for.inc20

for.inc20:                                        ; preds = %for.end
  %12 = load i32, ptr %i, align 4
  %inc21 = add i32 %12, 1
  store i32 %inc21, ptr %i, align 4
  br label %for.cond, !llvm.loop !24

for.end22:                                        ; preds = %for.cond
  ret void

eh.resume:                                        ; preds = %lpad
  %exn = load ptr, ptr %exn.slot, align 8
  %sel = load i32, ptr %ehselector.slot, align 4
  %lpad.val = insertvalue { ptr, i32 } poison, ptr %exn, 0
  %lpad.val23 = insertvalue { ptr, i32 } %lpad.val, i32 %sel, 1
  resume { ptr, i32 } %lpad.val23
}