; Function Attrs: mustprogress uwtable
define hidden void @_ZN12substitution7displayERSo(ptr nocapture noundef nonnull readonly align 8 dereferenceable(124) %this, ptr noundef nonnull align 8 dereferenceable(8) %out) local_unnamed_addr #5 align 2 personality ptr @__gxx_personality_v0 {
entry:
  %ref.tmp = alloca %struct.mk_pp, align 8
  %m_subst = getelementptr inbounds i8, ptr %this, i64 8
  %m_num_offsets.i = getelementptr inbounds i8, ptr %this, i64 16
  %0 = load i32, ptr %m_num_offsets.i, align 8
  %cmp15.not = icmp eq i32 %0, 0
  br i1 %cmp15.not, label %for.end22, label %for.cond2.preheader.lr.ph

for.cond2.preheader.lr.ph:                        ; preds = %entry
  %m_num_vars.i = getelementptr inbounds i8, ptr %this, i64 20
  %m_timestamp2.i.i = getelementptr inbounds i8, ptr %this, i64 24
  %m_empty.i.i = getelementptr inbounds i8, ptr %ref.tmp, i64 16
  %1 = load i32, ptr %m_num_vars.i, align 4
  %.not = icmp eq i32 %1, 0
  br i1 %.not, label %for.end22, label %for.cond2.preheader

for.cond2.preheader:                              ; preds = %for.cond2.preheader.lr.ph, %for.inc20
  %2 = phi i32 [ %14, %for.inc20 ], [ %0, %for.cond2.preheader.lr.ph ]
  %3 = phi i32 [ %15, %for.inc20 ], [ %1, %for.cond2.preheader.lr.ph ]
  %4 = phi i32 [ %16, %for.inc20 ], [ %1, %for.cond2.preheader.lr.ph ]
  %5 = phi i32 [ %17, %for.inc20 ], [ 1, %for.cond2.preheader.lr.ph ]
  %i.016 = phi i32 [ %inc21, %for.inc20 ], [ 0, %for.cond2.preheader.lr.ph ]
  %cmp513.not = icmp eq i32 %5, 0
  br i1 %cmp513.not, label %for.inc20, label %for.body6

for.body6:                                        ; preds = %for.cond2.preheader, %for.inc
  %6 = phi i32 [ %13, %for.inc ], [ %3, %for.cond2.preheader ]
  %7 = phi i32 [ %13, %for.inc ], [ %4, %for.cond2.preheader ]
  %j.014 = phi i32 [ %inc, %for.inc ], [ 0, %for.cond2.preheader ]
  %mul.i.i = mul i32 %7, %i.016
  %add.i.i = add i32 %mul.i.i, %j.014
  %8 = load ptr, ptr %m_subst, align 8
  %idxprom.i.i.i = zext i32 %add.i.i to i64
  %arrayidx.i.i.i = getelementptr inbounds %"struct.var_offset_map<expr_offset>::data", ptr %8, i64 %idxprom.i.i.i
  %m_timestamp.i.i = getelementptr inbounds i8, ptr %arrayidx.i.i.i, i64 16
  %9 = load i32, ptr %m_timestamp.i.i, align 8
  %10 = load i32, ptr %m_timestamp2.i.i, align 8
  %cmp.i.i = icmp eq i32 %9, %10
  br i1 %cmp.i.i, label %if.then, label %for.inc

if.then:                                          ; preds = %for.body6
  %r.sroa.0.0.copyload = load ptr, ptr %arrayidx.i.i.i, align 8
  %r.sroa.3.0.arrayidx.i.i.i.sroa_idx = getelementptr inbounds i8, ptr %arrayidx.i.i.i, i64 8
  %r.sroa.3.0.copyload = load i32, ptr %r.sroa.3.0.arrayidx.i.i.i.sroa_idx, align 8
  %call8 = call noundef nonnull align 8 dereferenceable(8) ptr @_ZStlsISt11char_traitsIcEERSt13basic_ostreamIcT_ES5_PKc(ptr noundef nonnull align 8 dereferenceable(8) %out, ptr noundef nonnull @.str.4)
  %call9 = call noundef nonnull align 8 dereferenceable(8) ptr @_ZNSolsEj(ptr noundef nonnull align 8 dereferenceable(8) %call8, i32 noundef %j.014)
  %call10 = call noundef nonnull align 8 dereferenceable(8) ptr @_ZStlsISt11char_traitsIcEERSt13basic_ostreamIcT_ES5_PKc(ptr noundef nonnull align 8 dereferenceable(8) %call9, ptr noundef nonnull @.str.5)
  %call11 = call noundef nonnull align 8 dereferenceable(8) ptr @_ZNSolsEj(ptr noundef nonnull align 8 dereferenceable(8) %call10, i32 noundef %i.016)
  %call12 = call noundef nonnull align 8 dereferenceable(8) ptr @_ZStlsISt11char_traitsIcEERSt13basic_ostreamIcT_ES5_PKc(ptr noundef nonnull align 8 dereferenceable(8) %call11, ptr noundef nonnull @.str.8)
  %call14 = call noundef nonnull align 8 dereferenceable(8) ptr @_ZNSolsEj(ptr noundef nonnull align 8 dereferenceable(8) %call12, i32 noundef %r.sroa.3.0.copyload)
  %call15 = call noundef nonnull align 8 dereferenceable(8) ptr @_ZStlsISt11char_traitsIcEERSt13basic_ostreamIcT_ES5_PKc(ptr noundef nonnull align 8 dereferenceable(8) %call14, ptr noundef nonnull @.str.7)
  %11 = load ptr, ptr %this, align 8
  call void @_ZN11mk_ismt2_ppC2EP3astR11ast_managerjjPKc(ptr noundef nonnull align 8 dereferenceable(48) %ref.tmp, ptr noundef %r.sroa.0.0.copyload, ptr noundef nonnull align 8 dereferenceable(976) %11, i32 noundef 0, i32 noundef 0, ptr noundef null)
  %call17 = invoke noundef nonnull align 8 dereferenceable(8) ptr @_ZlsRSoRK11mk_ismt2_pp(ptr noundef nonnull align 8 dereferenceable(8) %call15, ptr noundef nonnull align 8 dereferenceable(48) %ref.tmp)
          to label %invoke.cont unwind label %lpad

invoke.cont:                                      ; preds = %if.then
  %call19 = invoke noundef nonnull align 8 dereferenceable(8) ptr @_ZStlsISt11char_traitsIcEERSt13basic_ostreamIcT_ES5_PKc(ptr noundef nonnull align 8 dereferenceable(8) %call17, ptr noundef nonnull @.str.7)
          to label %invoke.cont18 unwind label %lpad

invoke.cont18:                                    ; preds = %invoke.cont
  call void @_ZN10params_refD1Ev(ptr noundef nonnull align 8 dereferenceable(8) %m_empty.i.i) #15
  %.pre = load i32, ptr %m_num_vars.i, align 4
  br label %for.inc

lpad:                                             ; preds = %invoke.cont, %if.then
  %12 = landingpad { ptr, i32 }
          cleanup
  call void @_ZN10params_refD1Ev(ptr noundef nonnull align 8 dereferenceable(8) %m_empty.i.i) #15
  resume { ptr, i32 } %12

for.inc:                                          ; preds = %for.body6, %invoke.cont18
  %13 = phi i32 [ %6, %for.body6 ], [ %.pre, %invoke.cont18 ]
  %inc = add nuw i32 %j.014, 1
  %cmp5 = icmp ult i32 %inc, %13
  br i1 %cmp5, label %for.body6, label %for.inc20.loopexit, !llvm.loop !33

for.inc20.loopexit:                               ; preds = %for.inc
  %.pre18 = load i32, ptr %m_num_offsets.i, align 8
  br label %for.inc20

for.inc20:                                        ; preds = %for.inc20.loopexit, %for.cond2.preheader
  %14 = phi i32 [ %.pre18, %for.inc20.loopexit ], [ %2, %for.cond2.preheader ]
  %15 = phi i32 [ %13, %for.inc20.loopexit ], [ %3, %for.cond2.preheader ]
  %16 = phi i32 [ %13, %for.inc20.loopexit ], [ %4, %for.cond2.preheader ]
  %17 = phi i32 [ %13, %for.inc20.loopexit ], [ 0, %for.cond2.preheader ]
  %inc21 = add nuw i32 %i.016, 1
  %cmp = icmp ult i32 %inc21, %14
  br i1 %cmp, label %for.cond2.preheader, label %for.end22, !llvm.loop !34

for.end22:                                        ; preds = %for.inc20, %for.cond2.preheader.lr.ph, %entry
  ret void
}